target datalayout = "e-m:e-p270:32:32-p271:32:32-p272:64:64-i64:64-i128:128-f80:128-n8:16:32:64-S128"
target triple = "x86_64-pc-linux-gnu"

%struct.anon = type { ptr, i32 }

@advice_enabled.globally_enabled = internal global i32 -1, align 4
@.str.1 = private unnamed_addr constant [11 x i8] c"GIT_ADVICE\00", align 1

; Function Attrs: nounwind uwtable
define dso_local i32 @advice_enabled(i32 noundef %0) #0 {
  %2 = alloca i32, align 4
  %3 = alloca i32, align 4
  %4 = alloca i32, align 4
  %5 = alloca i32, align 4
  store i32 %0, ptr %3, align 4, !tbaa !9
  call void @llvm.lifetime.start.p0(i64 4, ptr %4) #10
  %6 = load i32, ptr %3, align 4, !tbaa !9
  %7 = zext i32 %6 to i64
  %8 = getelementptr inbounds nuw [46 x %struct.anon], ptr @advice_setting, i64 0, i64 %7
  %9 = getelementptr inbounds nuw %struct.anon, ptr %8, i32 0, i32 1
  %10 = load i32, ptr %9, align 8, !tbaa !21
  %11 = icmp ne i32 %10, 1
  %12 = zext i1 %11 to i32
  store i32 %12, ptr %4, align 4, !tbaa !9
  %13 = load i32, ptr @advice_enabled.globally_enabled, align 4, !tbaa !9
  %14 = icmp slt i32 %13, 0
  br i1 %14, label %15, label %17

15:                                               ; preds = %1
  %16 = call i32 @git_env_bool(ptr noundef @.str.1, i32 noundef 1)
  store i32 %16, ptr @advice_enabled.globally_enabled, align 4, !tbaa !9
  br label %17

17:                                               ; preds = %15, %1
  %18 = load i32, ptr @advice_enabled.globally_enabled, align 4, !tbaa !9
  %19 = icmp ne i32 %18, 0
  br i1 %19, label %21, label %20

20:                                               ; preds = %17
  store i32 0, ptr %2, align 4
  store i32 1, ptr %5, align 4
  br label %35

21:                                               ; preds = %17
  %22 = load i32, ptr %3, align 4, !tbaa !9
  %23 = icmp eq i32 %22, 25
  br i1 %23, label %24, label %33

24:                                               ; preds = %21
  %25 = load i32, ptr %4, align 4, !tbaa !9
  %26 = icmp ne i32 %25, 0
  br i1 %26, label %27, label %30

27:                                               ; preds = %24
  %28 = call i32 @advice_enabled(i32 noundef 26)
  %29 = icmp ne i32 %28, 0
  br label %30

30:                                               ; preds = %27, %24
  %31 = phi i1 [ false, %24 ], [ %29, %27 ]
  %32 = zext i1 %31 to i32
  store i32 %32, ptr %2, align 4
  store i32 1, ptr %5, align 4
  br label %35

33:                                               ; preds = %21
  %34 = load i32, ptr %4, align 4, !tbaa !9
  store i32 %34, ptr %2, align 4
  store i32 1, ptr %5, align 4
  br label %35

35:                                               ; preds = %33, %30, %20
  call void @llvm.lifetime.end.p0(i64 4, ptr %4) #10
  %36 = load i32, ptr %2, align 4
  ret i32 %36
}