; Function Attrs: nounwind uwtable
define dso_local range(i32 0, 2) i32 @advice_enabled(i32 noundef %0) local_unnamed_addr #0 {
  %2 = zext i32 %0 to i64
  %3 = getelementptr inbounds nuw [46 x %struct.anon], ptr @advice_setting, i64 0, i64 %2, i32 1
  %4 = load i32, ptr %3, align 8, !tbaa !18
  %5 = icmp ne i32 %4, 1
  %6 = load i32, ptr @advice_enabled.globally_enabled, align 4, !tbaa !14
  %7 = icmp slt i32 %6, 0
  br i1 %7, label %8, label %10

8:                                                ; preds = %1
  %9 = tail call i32 @git_env_bool(ptr noundef nonnull @.str.1, i32 noundef 1) #12
  store i32 %9, ptr @advice_enabled.globally_enabled, align 4, !tbaa !14
  br label %10

10:                                               ; preds = %8, %1
  %.pr = phi i32 [ %9, %8 ], [ %6, %1 ]
  %.not = icmp eq i32 %.pr, 0
  br i1 %.not, label %advice_enabled.exit, label %11

11:                                               ; preds = %10
  %12 = icmp eq i32 %0, 25
  %brmerge.not = select i1 %12, i1 %5, i1 false
  %not. = xor i1 %12, true
  %narrow = select i1 %not., i1 %5, i1 false
  br i1 %brmerge.not, label %13, label %advice_enabled.exit

13:                                               ; preds = %11
  %14 = load i32, ptr getelementptr inbounds nuw (i8, ptr @advice_setting, i64 424), align 8, !tbaa !18
  %15 = icmp ne i32 %14, 1
  %16 = icmp slt i32 %.pr, 0
  br i1 %16, label %17, label %advice_enabled.exit

17:                                               ; preds = %13
  %18 = tail call i32 @git_env_bool(ptr noundef nonnull @.str.1, i32 noundef 1) #12
  store i32 %18, ptr @advice_enabled.globally_enabled, align 4, !tbaa !14
  %19 = icmp ne i32 %18, 0
  %20 = select i1 %19, i1 %15, i1 false
  br label %advice_enabled.exit

advice_enabled.exit:                              ; preds = %17, %13, %11, %10
  %.0.shrunk = phi i1 [ false, %10 ], [ %narrow, %11 ], [ %20, %17 ], [ %15, %13 ]
  %.0 = zext i1 %.0.shrunk to i32
  ret i32 %.0
}